(dp0
S'sha'
p1
S'827ccb0eea8a706c4c34a16891f84e7b'
p2
s.(dp0
S'sha'
p1
S'827ccb0eea8a706c4c34a16891f84e7b'
p2
s.(dp0
S'sha'
p1
S'827ccb0eea8a706c4c34a16891f84e7b'
p2
s.(dp0
S'sha'
p1
S'827ccb0eea8a706c4c34a16891f84e7b'
p2
s.(dp0
S'sha'
p1
S'827ccb0eea8a706c4c34a16891f84e7b'
p2
s.(dp0
S'sha'
p1
S'827ccb0eea8a706c4c34a16891f84e7b'
p2
s.(dp0
S'sha'
p1
S'827ccb0eea8a706c4c34a16891f84e7b'
p2
s.